target datalayout = "e-m:e-p270:32:32-p271:32:32-p272:64:64-i64:64-i128:128-f80:128-n8:16:32:64-S128"
target triple = "x86_64-pc-linux-gnu"

%struct.lv_area_t = type { i32, i32, i32, i32 }
%struct.lv_point_t = type { i32, i32 }

; Function Attrs: nounwind uwtable
define void @lv_point_set(ptr noundef %0, i32 noundef %1, i32 noundef %2) #0 {
  %4 = alloca ptr, align 8
  %5 = alloca i32, align 4
  %6 = alloca i32, align 4
  store ptr %0, ptr %4, align 8, !tbaa !3
  store i32 %1, ptr %5, align 4, !tbaa !7
  store i32 %2, ptr %6, align 4, !tbaa !7
  %7 = load i32, ptr %5, align 4, !tbaa !7
  %8 = load ptr, ptr %4, align 8, !tbaa !3
  %9 = getelementptr inbounds nuw %struct.lv_point_t, ptr %8, i32 0, i32 0
  store i32 %7, ptr %9, align 4, !tbaa !20
  %10 = load i32, ptr %6, align 4, !tbaa !7
  %11 = load ptr, ptr %4, align 8, !tbaa !3
  %12 = getelementptr inbounds nuw %struct.lv_point_t, ptr %11, i32 0, i32 1
  store i32 %10, ptr %12, align 4, !tbaa !22
  ret void
}

; Function Attrs: nounwind uwtable
define zeroext i1 @lv_area_is_in(ptr noundef %0, ptr noundef %1, i32 noundef %2) #0 {
  %4 = alloca i1, align 1
  %5 = alloca ptr, align 8
  %6 = alloca ptr, align 8
  %7 = alloca i32, align 4
  %8 = alloca i8, align 1
  %9 = alloca i32, align 4
  %10 = alloca %struct.lv_point_t, align 4
  store ptr %0, ptr %5, align 8, !tbaa !3
  store ptr %1, ptr %6, align 8, !tbaa !3
  store i32 %2, ptr %7, align 4, !tbaa !7
  call void @llvm.lifetime.start.p0(i64 1, ptr %8) #5
  store i8 0, ptr %8, align 1, !tbaa !14
  %11 = load ptr, ptr %5, align 8, !tbaa !3
  %12 = getelementptr inbounds nuw %struct.lv_area_t, ptr %11, i32 0, i32 0
  %13 = load i32, ptr %12, align 4, !tbaa !9
  %14 = load ptr, ptr %6, align 8, !tbaa !3
  %15 = getelementptr inbounds nuw %struct.lv_area_t, ptr %14, i32 0, i32 0
  %16 = load i32, ptr %15, align 4, !tbaa !9
  %17 = icmp sge i32 %13, %16
  br i1 %17, label %18, label %43

18:                                               ; preds = %3
  %19 = load ptr, ptr %5, align 8, !tbaa !3
  %20 = getelementptr inbounds nuw %struct.lv_area_t, ptr %19, i32 0, i32 1
  %21 = load i32, ptr %20, align 4, !tbaa !11
  %22 = load ptr, ptr %6, align 8, !tbaa !3
  %23 = getelementptr inbounds nuw %struct.lv_area_t, ptr %22, i32 0, i32 1
  %24 = load i32, ptr %23, align 4, !tbaa !11
  %25 = icmp sge i32 %21, %24
  br i1 %25, label %26, label %43

26:                                               ; preds = %18
  %27 = load ptr, ptr %5, align 8, !tbaa !3
  %28 = getelementptr inbounds nuw %struct.lv_area_t, ptr %27, i32 0, i32 2
  %29 = load i32, ptr %28, align 4, !tbaa !12
  %30 = load ptr, ptr %6, align 8, !tbaa !3
  %31 = getelementptr inbounds nuw %struct.lv_area_t, ptr %30, i32 0, i32 2
  %32 = load i32, ptr %31, align 4, !tbaa !12
  %33 = icmp sle i32 %29, %32
  br i1 %33, label %34, label %43

34:                                               ; preds = %26
  %35 = load ptr, ptr %5, align 8, !tbaa !3
  %36 = getelementptr inbounds nuw %struct.lv_area_t, ptr %35, i32 0, i32 3
  %37 = load i32, ptr %36, align 4, !tbaa !13
  %38 = load ptr, ptr %6, align 8, !tbaa !3
  %39 = getelementptr inbounds nuw %struct.lv_area_t, ptr %38, i32 0, i32 3
  %40 = load i32, ptr %39, align 4, !tbaa !13
  %41 = icmp sle i32 %37, %40
  br i1 %41, label %42, label %43

42:                                               ; preds = %34
  store i8 1, ptr %8, align 1, !tbaa !14
  br label %43

43:                                               ; preds = %42, %34, %26, %18, %3
  %44 = load i8, ptr %8, align 1, !tbaa !14, !range !16, !noundef !17
  %45 = trunc i8 %44 to i1
  br i1 %45, label %47, label %46

46:                                               ; preds = %43
  store i1 false, ptr %4, align 1
  store i32 1, ptr %9, align 4
  br label %105

47:                                               ; preds = %43
  %48 = load i32, ptr %7, align 4, !tbaa !7
  %49 = icmp eq i32 %48, 0
  br i1 %49, label %50, label %51

50:                                               ; preds = %47
  store i1 true, ptr %4, align 1
  store i32 1, ptr %9, align 4
  br label %105

51:                                               ; preds = %47
  call void @llvm.lifetime.start.p0(i64 8, ptr %10) #5
  %52 = load ptr, ptr %5, align 8, !tbaa !3
  %53 = getelementptr inbounds nuw %struct.lv_area_t, ptr %52, i32 0, i32 0
  %54 = load i32, ptr %53, align 4, !tbaa !9
  %55 = load ptr, ptr %5, align 8, !tbaa !3
  %56 = getelementptr inbounds nuw %struct.lv_area_t, ptr %55, i32 0, i32 1
  %57 = load i32, ptr %56, align 4, !tbaa !11
  call void @lv_point_set(ptr noundef %10, i32 noundef %54, i32 noundef %57)
  %58 = load ptr, ptr %6, align 8, !tbaa !3
  %59 = load i32, ptr %7, align 4, !tbaa !7
  %60 = call zeroext i1 @lv_area_is_point_on(ptr noundef %58, ptr noundef %10, i32 noundef %59)
  %61 = zext i1 %60 to i32
  %62 = icmp eq i32 %61, 0
  br i1 %62, label %63, label %64

63:                                               ; preds = %51
  store i1 false, ptr %4, align 1
  store i32 1, ptr %9, align 4
  br label %104

64:                                               ; preds = %51
  %65 = load ptr, ptr %5, align 8, !tbaa !3
  %66 = getelementptr inbounds nuw %struct.lv_area_t, ptr %65, i32 0, i32 2
  %67 = load i32, ptr %66, align 4, !tbaa !12
  %68 = load ptr, ptr %5, align 8, !tbaa !3
  %69 = getelementptr inbounds nuw %struct.lv_area_t, ptr %68, i32 0, i32 1
  %70 = load i32, ptr %69, align 4, !tbaa !11
  call void @lv_point_set(ptr noundef %10, i32 noundef %67, i32 noundef %70)
  %71 = load ptr, ptr %6, align 8, !tbaa !3
  %72 = load i32, ptr %7, align 4, !tbaa !7
  %73 = call zeroext i1 @lv_area_is_point_on(ptr noundef %71, ptr noundef %10, i32 noundef %72)
  %74 = zext i1 %73 to i32
  %75 = icmp eq i32 %74, 0
  br i1 %75, label %76, label %77

76:                                               ; preds = %64
  store i1 false, ptr %4, align 1
  store i32 1, ptr %9, align 4
  br label %104

77:                                               ; preds = %64
  %78 = load ptr, ptr %5, align 8, !tbaa !3
  %79 = getelementptr inbounds nuw %struct.lv_area_t, ptr %78, i32 0, i32 0
  %80 = load i32, ptr %79, align 4, !tbaa !9
  %81 = load ptr, ptr %5, align 8, !tbaa !3
  %82 = getelementptr inbounds nuw %struct.lv_area_t, ptr %81, i32 0, i32 3
  %83 = load i32, ptr %82, align 4, !tbaa !13
  call void @lv_point_set(ptr noundef %10, i32 noundef %80, i32 noundef %83)
  %84 = load ptr, ptr %6, align 8, !tbaa !3
  %85 = load i32, ptr %7, align 4, !tbaa !7
  %86 = call zeroext i1 @lv_area_is_point_on(ptr noundef %84, ptr noundef %10, i32 noundef %85)
  %87 = zext i1 %86 to i32
  %88 = icmp eq i32 %87, 0
  br i1 %88, label %89, label %90

89:                                               ; preds = %77
  store i1 false, ptr %4, align 1
  store i32 1, ptr %9, align 4
  br label %104

90:                                               ; preds = %77
  %91 = load ptr, ptr %5, align 8, !tbaa !3
  %92 = getelementptr inbounds nuw %struct.lv_area_t, ptr %91, i32 0, i32 2
  %93 = load i32, ptr %92, align 4, !tbaa !12
  %94 = load ptr, ptr %5, align 8, !tbaa !3
  %95 = getelementptr inbounds nuw %struct.lv_area_t, ptr %94, i32 0, i32 3
  %96 = load i32, ptr %95, align 4, !tbaa !13
  call void @lv_point_set(ptr noundef %10, i32 noundef %93, i32 noundef %96)
  %97 = load ptr, ptr %6, align 8, !tbaa !3
  %98 = load i32, ptr %7, align 4, !tbaa !7
  %99 = call zeroext i1 @lv_area_is_point_on(ptr noundef %97, ptr noundef %10, i32 noundef %98)
  %100 = zext i1 %99 to i32
  %101 = icmp eq i32 %100, 0
  br i1 %101, label %102, label %103

102:                                              ; preds = %90
  store i1 false, ptr %4, align 1
  store i32 1, ptr %9, align 4
  br label %104

103:                                              ; preds = %90
  store i1 true, ptr %4, align 1
  store i32 1, ptr %9, align 4
  br label %104

104:                                              ; preds = %103, %102, %89, %76, %63
  call void @llvm.lifetime.end.p0(i64 8, ptr %10) #5
  br label %105

105:                                              ; preds = %104, %50, %46
  call void @llvm.lifetime.end.p0(i64 1, ptr %8) #5
  %106 = load i1, ptr %4, align 1
  ret i1 %106
}