; Function Attrs: mustprogress nofree norecurse nosync nounwind willreturn memory(argmem: read) uwtable
define zeroext i1 @lv_area_is_in(ptr noundef readonly captures(none) %0, ptr noundef readonly captures(none) %1, i32 noundef %2) local_unnamed_addr #3 {
  %4 = alloca %struct.lv_point_t, align 4
  %5 = load i32, ptr %0, align 4, !tbaa !3
  %6 = load i32, ptr %1, align 4, !tbaa !3
  %.not = icmp slt i32 %5, %6
  br i1 %.not, label %.critedge, label %7

7:                                                ; preds = %3
  %8 = getelementptr inbounds nuw i8, ptr %0, i64 4
  %9 = load i32, ptr %8, align 4, !tbaa !8
  %10 = getelementptr inbounds nuw i8, ptr %1, i64 4
  %11 = load i32, ptr %10, align 4, !tbaa !8
  %.not28 = icmp slt i32 %9, %11
  br i1 %.not28, label %.critedge, label %12

12:                                               ; preds = %7
  %13 = getelementptr inbounds nuw i8, ptr %0, i64 8
  %14 = load i32, ptr %13, align 4, !tbaa !9
  %15 = getelementptr inbounds nuw i8, ptr %1, i64 8
  %16 = load i32, ptr %15, align 4, !tbaa !9
  %.not29 = icmp sgt i32 %14, %16
  br i1 %.not29, label %.critedge, label %17

17:                                               ; preds = %12
  %18 = getelementptr inbounds nuw i8, ptr %0, i64 12
  %19 = load i32, ptr %18, align 4, !tbaa !10
  %20 = getelementptr inbounds nuw i8, ptr %1, i64 12
  %21 = load i32, ptr %20, align 4, !tbaa !10
  %.not30.not = icmp sgt i32 %19, %21
  br i1 %.not30.not, label %.critedge, label %22

22:                                               ; preds = %17
  %23 = icmp eq i32 %2, 0
  br i1 %23, label %.critedge, label %24

24:                                               ; preds = %22
  call void @llvm.lifetime.start.p0(i64 8, ptr nonnull %4) #9
  store i32 %5, ptr %4, align 4, !tbaa !12
  %25 = getelementptr inbounds nuw i8, ptr %4, i64 4
  store i32 %9, ptr %25, align 4, !tbaa !14
  %26 = call zeroext i1 @lv_area_is_point_on(ptr noundef nonnull %1, ptr noundef nonnull %4, i32 noundef %2)
  br i1 %26, label %27, label %33

27:                                               ; preds = %24
  store i32 %14, ptr %4, align 4, !tbaa !12
  store i32 %9, ptr %25, align 4, !tbaa !14
  %28 = call zeroext i1 @lv_area_is_point_on(ptr noundef nonnull %1, ptr noundef nonnull %4, i32 noundef %2)
  br i1 %28, label %29, label %33

29:                                               ; preds = %27
  store i32 %5, ptr %4, align 4, !tbaa !12
  store i32 %19, ptr %25, align 4, !tbaa !14
  %30 = call zeroext i1 @lv_area_is_point_on(ptr noundef nonnull %1, ptr noundef nonnull %4, i32 noundef %2)
  br i1 %30, label %31, label %33

31:                                               ; preds = %29
  store i32 %14, ptr %4, align 4, !tbaa !12
  store i32 %19, ptr %25, align 4, !tbaa !14
  %32 = call zeroext i1 @lv_area_is_point_on(ptr noundef nonnull %1, ptr noundef nonnull %4, i32 noundef %2)
  br label %33

33:                                               ; preds = %31, %29, %27, %24
  %.1 = phi i1 [ false, %24 ], [ false, %27 ], [ false, %29 ], [ %32, %31 ]
  call void @llvm.lifetime.end.p0(i64 8, ptr nonnull %4) #9
  br label %.critedge

.critedge:                                        ; preds = %12, %7, %3, %22, %17, %33
  %.026 = phi i1 [ %.1, %33 ], [ false, %17 ], [ true, %22 ], [ false, %3 ], [ false, %7 ], [ false, %12 ]
  ret i1 %.026
}